; Function Attrs: nounwind uwtable
define ptr @l___private_Lean_Data_FuzzyMatching_0__Lean_FuzzyMatching_fuzzyMatchCore_allowMatch(i32 noundef %0, i32 noundef %1, i8 noundef zeroext %2, i8 noundef zeroext %3) local_unnamed_addr #0 {
  %5 = tail call ptr @l_Char_toLower(i32 noundef %0) #7
  %6 = ptrtoint ptr %5 to i64
  %7 = lshr i64 %6, 1
  %8 = trunc i64 %7 to i32
  %9 = and i64 %6, 1
  %.not = icmp eq i64 %9, 0
  br i1 %.not, label %10, label %lean_dec.exit15

10:                                               ; preds = %4
  %11 = load i32, ptr %5, align 4, !tbaa !5
  %12 = icmp sgt i32 %11, 1
  br i1 %12, label %13, label %15, !prof !10

13:                                               ; preds = %10
  %14 = add nsw i32 %11, -1
  store i32 %14, ptr %5, align 4, !tbaa !5
  br label %lean_dec.exit15

15:                                               ; preds = %10
  %.not.i = icmp eq i32 %11, 0
  br i1 %.not.i, label %lean_dec.exit15, label %16

16:                                               ; preds = %15
  tail call void @lean_dec_ref_cold(ptr noundef nonnull %5) #7
  br label %lean_dec.exit15

lean_dec.exit15:                                  ; preds = %16, %15, %13, %4
  %17 = tail call ptr @l_Char_toLower(i32 noundef %1) #7
  %18 = ptrtoint ptr %17 to i64
  %19 = lshr i64 %18, 1
  %20 = trunc i64 %19 to i32
  %21 = and i64 %18, 1
  %.not18 = icmp eq i64 %21, 0
  br i1 %.not18, label %22, label %lean_dec.exit

22:                                               ; preds = %lean_dec.exit15
  %23 = load i32, ptr %17, align 4, !tbaa !5
  %24 = icmp sgt i32 %23, 1
  br i1 %24, label %25, label %27, !prof !10

25:                                               ; preds = %22
  %26 = add nsw i32 %23, -1
  store i32 %26, ptr %17, align 4, !tbaa !5
  br label %lean_dec.exit

27:                                               ; preds = %22
  %.not.i16 = icmp eq i32 %23, 0
  br i1 %.not.i16, label %lean_dec.exit, label %28

28:                                               ; preds = %27
  tail call void @lean_dec_ref_cold(ptr noundef nonnull %17) #7
  br label %lean_dec.exit

lean_dec.exit:                                    ; preds = %28, %27, %25, %lean_dec.exit15
  %.not19 = icmp eq i32 %8, %20
  br i1 %.not19, label %29, label %l___private_Lean_Data_FuzzyMatching_0__Lean_FuzzyMatching_fuzzyMatchCore_allowMatch___lambda__2.exit

29:                                               ; preds = %lean_dec.exit
  %30 = icmp eq i8 %2, 0
  br i1 %30, label %31, label %lean_dec.exit.i

31:                                               ; preds = %29
  %32 = icmp eq i8 %3, 0
  br i1 %32, label %33, label %l___private_Lean_Data_FuzzyMatching_0__Lean_FuzzyMatching_fuzzyMatchCore_allowMatch___lambda__2.exit

33:                                               ; preds = %31
  %34 = load ptr, ptr @l___private_Lean_Data_FuzzyMatching_0__Lean_FuzzyMatching_fuzzyMatchCore_allowMatch___lambda__2___closed__2, align 8, !tbaa !11
  br label %l___private_Lean_Data_FuzzyMatching_0__Lean_FuzzyMatching_fuzzyMatchCore_allowMatch___lambda__2.exit

lean_dec.exit.i:                                  ; preds = %29
  %35 = load ptr, ptr @l___private_Lean_Data_FuzzyMatching_0__Lean_FuzzyMatching_fuzzyMatchCore_allowMatch___lambda__2___closed__2, align 8, !tbaa !11
  br label %l___private_Lean_Data_FuzzyMatching_0__Lean_FuzzyMatching_fuzzyMatchCore_allowMatch___lambda__2.exit

l___private_Lean_Data_FuzzyMatching_0__Lean_FuzzyMatching_fuzzyMatchCore_allowMatch___lambda__2.exit: ; preds = %lean_dec.exit.i, %33, %31, %lean_dec.exit
  %.0 = phi ptr [ inttoptr (i64 1 to ptr), %lean_dec.exit ], [ %35, %lean_dec.exit.i ], [ %34, %33 ], [ inttoptr (i64 1 to ptr), %31 ]
  ret ptr %.0
}